; Function Attrs: mustprogress uwtable
define hidden void @_ZN17duckdb_libpgquery24core_yy_switch_to_bufferEPNS_15yy_buffer_stateEPv(ptr noundef %0, ptr noundef captures(none) %1) local_unnamed_addr #0 {
  %3 = getelementptr inbounds nuw i8, ptr %1, i64 40
  %4 = load ptr, ptr %3, align 8, !tbaa !19
  %.not.i = icmp eq ptr %4, null
  br i1 %.not.i, label %5, label %11

5:                                                ; preds = %2
  %6 = tail call noundef ptr @_ZN17duckdb_libpgquery6pallocEm(i64 noundef 8)
  store ptr %6, ptr %3, align 8, !tbaa !19
  %.not28.i = icmp eq ptr %6, null
  br i1 %.not28.i, label %7, label %8

7:                                                ; preds = %5
  tail call fastcc void @_ZN17duckdb_libpgqueryL14yy_fatal_errorEPKcPv(ptr noundef nonnull @.str.40) #20
  unreachable

8:                                                ; preds = %5
  store i64 0, ptr %6, align 8
  %9 = getelementptr inbounds nuw i8, ptr %1, i64 32
  store i64 1, ptr %9, align 8, !tbaa !23
  %10 = getelementptr inbounds nuw i8, ptr %1, i64 24
  store i64 0, ptr %10, align 8, !tbaa !20
  br label %_ZN17duckdb_libpgqueryL26core_yyensure_buffer_stackEPv.exit

11:                                               ; preds = %2
  %12 = getelementptr inbounds nuw i8, ptr %1, i64 24
  %13 = load i64, ptr %12, align 8, !tbaa !20
  %14 = getelementptr inbounds nuw i8, ptr %1, i64 32
  %15 = load i64, ptr %14, align 8, !tbaa !23
  %16 = add i64 %15, -1
  %.not29.i = icmp ult i64 %13, %16
  br i1 %.not29.i, label %_ZN17duckdb_libpgqueryL26core_yyensure_buffer_stackEPv.exit, label %_ZN17duckdb_libpgquery14core_yyreallocEPvmS0_.exit.i

_ZN17duckdb_libpgquery14core_yyreallocEPvmS0_.exit.i: ; preds = %11
  %17 = add i64 %15, 8
  %18 = shl i64 %17, 3
  %19 = tail call noundef ptr @_ZN17duckdb_libpgquery8repallocEPvm(ptr noundef nonnull %4, i64 noundef %18)
  store ptr %19, ptr %3, align 8, !tbaa !19
  %.not30.i = icmp eq ptr %19, null
  br i1 %.not30.i, label %20, label %21

20:                                               ; preds = %_ZN17duckdb_libpgquery14core_yyreallocEPvmS0_.exit.i
  tail call fastcc void @_ZN17duckdb_libpgqueryL14yy_fatal_errorEPKcPv(ptr noundef nonnull @.str.40) #20
  unreachable

21:                                               ; preds = %_ZN17duckdb_libpgquery14core_yyreallocEPvmS0_.exit.i
  %22 = load i64, ptr %14, align 8, !tbaa !23
  %23 = getelementptr inbounds nuw ptr, ptr %19, i64 %22
  tail call void @llvm.memset.p0.i64(ptr noundef nonnull align 8 dereferenceable(64) %23, i8 0, i64 64, i1 false)
  store i64 %17, ptr %14, align 8, !tbaa !23
  br label %_ZN17duckdb_libpgqueryL26core_yyensure_buffer_stackEPv.exit

_ZN17duckdb_libpgqueryL26core_yyensure_buffer_stackEPv.exit: ; preds = %8, %11, %21
  %24 = load ptr, ptr %3, align 8, !tbaa !19
  %.not = icmp eq ptr %24, null
  br i1 %.not, label %25, label %.thread

25:                                               ; preds = %_ZN17duckdb_libpgqueryL26core_yyensure_buffer_stackEPv.exit
  %26 = icmp eq ptr %0, null
  tail call void @llvm.assume(i1 %26)
  br label %63

.thread:                                          ; preds = %_ZN17duckdb_libpgqueryL26core_yyensure_buffer_stackEPv.exit
  %27 = getelementptr inbounds nuw i8, ptr %1, i64 24
  %28 = load i64, ptr %27, align 8, !tbaa !20
  %29 = getelementptr inbounds nuw ptr, ptr %24, i64 %28
  %30 = load ptr, ptr %29, align 8, !tbaa !21
  %31 = icmp eq ptr %30, %0
  br i1 %31, label %63, label %32

32:                                               ; preds = %.thread
  %33 = icmp eq ptr %30, null
  br i1 %33, label %.critedge, label %34

34:                                               ; preds = %32
  %35 = getelementptr inbounds nuw i8, ptr %1, i64 48
  %36 = load i8, ptr %35, align 8, !tbaa !33
  %37 = getelementptr inbounds nuw i8, ptr %1, i64 72
  %38 = load ptr, ptr %37, align 8, !tbaa !29
  store i8 %36, ptr %38, align 1, !tbaa !32
  %39 = load ptr, ptr %37, align 8, !tbaa !29
  %40 = load ptr, ptr %3, align 8, !tbaa !19
  %41 = load i64, ptr %27, align 8, !tbaa !20
  %42 = getelementptr inbounds nuw ptr, ptr %40, i64 %41
  %43 = load ptr, ptr %42, align 8, !tbaa !21
  %44 = getelementptr inbounds nuw i8, ptr %43, i64 16
  store ptr %39, ptr %44, align 8, !tbaa !28
  %45 = getelementptr inbounds nuw i8, ptr %1, i64 56
  %46 = load i64, ptr %45, align 8, !tbaa !27
  %47 = getelementptr inbounds nuw i8, ptr %43, i64 32
  store i64 %46, ptr %47, align 8, !tbaa !25
  br label %.critedge

.critedge:                                        ; preds = %34, %32
  %48 = phi i64 [ %41, %34 ], [ %28, %32 ]
  %49 = phi ptr [ %40, %34 ], [ %24, %32 ]
  %50 = getelementptr inbounds nuw ptr, ptr %49, i64 %48
  store ptr %0, ptr %50, align 8, !tbaa !21
  %51 = getelementptr inbounds nuw i8, ptr %0, i64 32
  %52 = load i64, ptr %51, align 8, !tbaa !25
  %53 = getelementptr inbounds nuw i8, ptr %1, i64 56
  store i64 %52, ptr %53, align 8, !tbaa !27
  %54 = getelementptr inbounds nuw i8, ptr %0, i64 16
  %55 = load ptr, ptr %54, align 8, !tbaa !28
  %56 = getelementptr inbounds nuw i8, ptr %1, i64 72
  store ptr %55, ptr %56, align 8, !tbaa !29
  %57 = getelementptr inbounds nuw i8, ptr %1, i64 136
  store ptr %55, ptr %57, align 8, !tbaa !30
  %58 = load ptr, ptr %0, align 8, !tbaa !31
  %59 = getelementptr inbounds nuw i8, ptr %1, i64 8
  store ptr %58, ptr %59, align 8, !tbaa !24
  %60 = load i8, ptr %55, align 1, !tbaa !32
  %61 = getelementptr inbounds nuw i8, ptr %1, i64 48
  store i8 %60, ptr %61, align 8, !tbaa !33
  %62 = getelementptr inbounds nuw i8, ptr %1, i64 88
  store i32 1, ptr %62, align 8, !tbaa !83
  br label %63

63:                                               ; preds = %25, %.thread, %.critedge
  ret void
}